; Function Attrs: nounwind uwtable
define ptr @l_Lake_Toml_recNodeWithAntiquot_formatter(ptr noundef %0, ptr noundef %1, ptr noundef readnone captures(none) %2, i8 noundef zeroext %3, ptr noundef %4, ptr noundef %5, ptr noundef %6, ptr noundef %7, ptr noundef %8) local_unnamed_addr #1 {
  tail call void @lean_inc_heartbeat() #4
  %10 = tail call noalias ptr @mi_malloc_small(i64 noundef 56) #4
  %11 = icmp eq ptr %10, null
  br i1 %11, label %12, label %lean_alloc_closure.exit

12:                                               ; preds = %9
  tail call void @lean_internal_panic_out_of_memory() #5
  unreachable

lean_alloc_closure.exit:                          ; preds = %9
  %13 = zext i8 %3 to i64
  %14 = shl nuw nsw i64 %13, 1
  %15 = or disjoint i64 %14, 1
  %16 = inttoptr i64 %15 to ptr
  %17 = getelementptr inbounds nuw i8, ptr %10, i64 4
  store i32 1, ptr %10, align 4, !tbaa !4
  store i32 -184549320, ptr %17, align 4
  %18 = getelementptr inbounds nuw i8, ptr %10, i64 8
  store ptr @l_Lean_Parser_mkAntiquot_formatter___boxed, ptr %18, align 8, !tbaa !10
  %19 = getelementptr inbounds nuw i8, ptr %10, i64 16
  store i16 9, ptr %19, align 8, !tbaa !18
  %20 = getelementptr inbounds nuw i8, ptr %10, i64 18
  store i16 4, ptr %20, align 2, !tbaa !18
  %21 = getelementptr inbounds nuw i8, ptr %10, i64 24
  store ptr %0, ptr %21, align 8, !tbaa !10
  %22 = getelementptr inbounds nuw i8, ptr %10, i64 32
  store ptr %1, ptr %22, align 8, !tbaa !10
  %23 = getelementptr inbounds nuw i8, ptr %10, i64 40
  store ptr %16, ptr %23, align 8, !tbaa !10
  %24 = getelementptr inbounds nuw i8, ptr %10, i64 48
  store ptr inttoptr (i64 3 to ptr), ptr %24, align 8, !tbaa !10
  %25 = load ptr, ptr @l_Lake_Toml_recNodeWithAntiquot_formatter___closed__1, align 8, !tbaa !10
  %26 = tail call ptr @l_Lean_PrettyPrinter_Formatter_orelse_formatter(ptr noundef nonnull %10, ptr noundef %25, ptr noundef %4, ptr noundef %5, ptr noundef %6, ptr noundef %7, ptr noundef %8) #4
  ret ptr %26
}